target datalayout = "e-m:e-p270:32:32-p271:32:32-p272:64:64-i64:64-i128:128-f80:128-n8:16:32:64-S128"
target triple = "x86_64-pc-linux-gnu"

%struct.AVChannelLayout = type { i32, i32, %union.anon, ptr }
%union.anon = type { i64 }
%struct.AVFilterChannelLayouts = type { ptr, i32, i8, i8, i32, ptr }

; Function Attrs: nounwind uwtable
define ptr @ff_make_channel_layout_list(ptr noundef %0) #0 {
  %2 = alloca ptr, align 8
  %3 = alloca ptr, align 8
  %4 = alloca ptr, align 8
  %5 = alloca i32, align 4
  %6 = alloca i32, align 4
  %7 = alloca i32, align 4
  %8 = alloca i32, align 4
  %9 = alloca i32, align 4
  store ptr %0, ptr %3, align 8, !tbaa !34
  call void @llvm.lifetime.start.p0(i64 8, ptr %4) #7
  call void @llvm.lifetime.start.p0(i64 4, ptr %5) #7
  store i32 0, ptr %5, align 4, !tbaa !21
  %10 = load ptr, ptr %3, align 8, !tbaa !34
  %11 = icmp ne ptr %10, null
  br i1 %11, label %12, label %26

12:                                               ; preds = %1
  store i32 0, ptr %5, align 4, !tbaa !21
  br label %13

13:                                               ; preds = %22, %12
  %14 = load ptr, ptr %3, align 8, !tbaa !34
  %15 = load i32, ptr %5, align 4, !tbaa !21
  %16 = sext i32 %15 to i64
  %17 = getelementptr inbounds %struct.AVChannelLayout, ptr %14, i64 %16
  %18 = getelementptr inbounds nuw %struct.AVChannelLayout, ptr %17, i32 0, i32 1
  %19 = load i32, ptr %18, align 4, !tbaa !36
  %20 = icmp ne i32 %19, 0
  br i1 %20, label %21, label %25

21:                                               ; preds = %13
  br label %22

22:                                               ; preds = %21
  %23 = load i32, ptr %5, align 4, !tbaa !21
  %24 = add nsw i32 %23, 1
  store i32 %24, ptr %5, align 4, !tbaa !21
  br label %13, !llvm.loop !37

25:                                               ; preds = %13
  br label %26

26:                                               ; preds = %25, %1
  %27 = call noalias ptr @av_mallocz(i64 noundef 32)
  store ptr %27, ptr %4, align 8, !tbaa !38
  %28 = load ptr, ptr %4, align 8, !tbaa !38
  %29 = icmp ne ptr %28, null
  br i1 %29, label %31, label %30

30:                                               ; preds = %26
  store ptr null, ptr %2, align 8
  store i32 1, ptr %6, align 4
  br label %101

31:                                               ; preds = %26
  %32 = load i32, ptr %5, align 4, !tbaa !21
  %33 = load ptr, ptr %4, align 8, !tbaa !38
  %34 = getelementptr inbounds nuw %struct.AVFilterChannelLayouts, ptr %33, i32 0, i32 1
  store i32 %32, ptr %34, align 8, !tbaa !39
  %35 = load i32, ptr %5, align 4, !tbaa !21
  %36 = icmp ne i32 %35, 0
  br i1 %36, label %37, label %79

37:                                               ; preds = %31
  %38 = load i32, ptr %5, align 4, !tbaa !21
  %39 = sext i32 %38 to i64
  %40 = call noalias ptr @av_calloc(i64 noundef %39, i64 noundef 24)
  %41 = load ptr, ptr %4, align 8, !tbaa !38
  %42 = getelementptr inbounds nuw %struct.AVFilterChannelLayouts, ptr %41, i32 0, i32 0
  store ptr %40, ptr %42, align 8, !tbaa !42
  %43 = load ptr, ptr %4, align 8, !tbaa !38
  %44 = getelementptr inbounds nuw %struct.AVFilterChannelLayouts, ptr %43, i32 0, i32 0
  %45 = load ptr, ptr %44, align 8, !tbaa !42
  %46 = icmp ne ptr %45, null
  br i1 %46, label %48, label %47

47:                                               ; preds = %37
  call void @av_freep(ptr noundef %4)
  store ptr null, ptr %2, align 8
  store i32 1, ptr %6, align 4
  br label %101

48:                                               ; preds = %37
  call void @llvm.lifetime.start.p0(i64 4, ptr %7) #7
  store i32 0, ptr %7, align 4, !tbaa !21
  br label %49

49:                                               ; preds = %73, %48
  %50 = load i32, ptr %7, align 4, !tbaa !21
  %51 = load i32, ptr %5, align 4, !tbaa !21
  %52 = icmp slt i32 %50, %51
  br i1 %52, label %54, label %53

53:                                               ; preds = %49
  store i32 5, ptr %6, align 4
  br label %76

54:                                               ; preds = %49
  call void @llvm.lifetime.start.p0(i64 4, ptr %8) #7
  %55 = load ptr, ptr %4, align 8, !tbaa !38
  %56 = getelementptr inbounds nuw %struct.AVFilterChannelLayouts, ptr %55, i32 0, i32 0
  %57 = load ptr, ptr %56, align 8, !tbaa !42
  %58 = load i32, ptr %7, align 4, !tbaa !21
  %59 = sext i32 %58 to i64
  %60 = getelementptr inbounds %struct.AVChannelLayout, ptr %57, i64 %59
  %61 = load ptr, ptr %3, align 8, !tbaa !34
  %62 = load i32, ptr %7, align 4, !tbaa !21
  %63 = sext i32 %62 to i64
  %64 = getelementptr inbounds %struct.AVChannelLayout, ptr %61, i64 %63
  %65 = call i32 @av_channel_layout_copy(ptr noundef %60, ptr noundef %64)
  store i32 %65, ptr %8, align 4, !tbaa !21
  %66 = load i32, ptr %8, align 4, !tbaa !21
  %67 = icmp slt i32 %66, 0
  br i1 %67, label %68, label %69

68:                                               ; preds = %54
  store i32 8, ptr %6, align 4
  br label %70

69:                                               ; preds = %54
  store i32 0, ptr %6, align 4
  br label %70

70:                                               ; preds = %68, %69
  call void @llvm.lifetime.end.p0(i64 4, ptr %8) #7
  %71 = load i32, ptr %6, align 4
  switch i32 %71, label %76 [
    i32 0, label %72
  ]

72:                                               ; preds = %70
  br label %73

73:                                               ; preds = %72
  %74 = load i32, ptr %7, align 4, !tbaa !21
  %75 = add nsw i32 %74, 1
  store i32 %75, ptr %7, align 4, !tbaa !21
  br label %49, !llvm.loop !43

76:                                               ; preds = %70, %53
  call void @llvm.lifetime.end.p0(i64 4, ptr %7) #7
  %77 = load i32, ptr %6, align 4
  switch i32 %77, label %101 [
    i32 5, label %78
    i32 8, label %81
  ]

78:                                               ; preds = %76
  br label %79

79:                                               ; preds = %78, %31
  %80 = load ptr, ptr %4, align 8, !tbaa !38
  store ptr %80, ptr %2, align 8
  store i32 1, ptr %6, align 4
  br label %101

81:                                               ; preds = %76
  call void @llvm.lifetime.start.p0(i64 4, ptr %9) #7
  store i32 0, ptr %9, align 4, !tbaa !21
  br label %82

82:                                               ; preds = %94, %81
  %83 = load i32, ptr %9, align 4, !tbaa !21
  %84 = load i32, ptr %5, align 4, !tbaa !21
  %85 = icmp slt i32 %83, %84
  br i1 %85, label %87, label %86

86:                                               ; preds = %82
  store i32 9, ptr %6, align 4
  call void @llvm.lifetime.end.p0(i64 4, ptr %9) #7
  br label %97

87:                                               ; preds = %82
  %88 = load ptr, ptr %4, align 8, !tbaa !38
  %89 = getelementptr inbounds nuw %struct.AVFilterChannelLayouts, ptr %88, i32 0, i32 0
  %90 = load ptr, ptr %89, align 8, !tbaa !42
  %91 = load i32, ptr %9, align 4, !tbaa !21
  %92 = sext i32 %91 to i64
  %93 = getelementptr inbounds %struct.AVChannelLayout, ptr %90, i64 %92
  call void @av_channel_layout_uninit(ptr noundef %93)
  br label %94

94:                                               ; preds = %87
  %95 = load i32, ptr %9, align 4, !tbaa !21
  %96 = add nsw i32 %95, 1
  store i32 %96, ptr %9, align 4, !tbaa !21
  br label %82, !llvm.loop !44

97:                                               ; preds = %86
  %98 = load ptr, ptr %4, align 8, !tbaa !38
  %99 = getelementptr inbounds nuw %struct.AVFilterChannelLayouts, ptr %98, i32 0, i32 0
  %100 = load ptr, ptr %99, align 8, !tbaa !42
  call void @av_free(ptr noundef %100)
  call void @av_freep(ptr noundef %4)
  store ptr null, ptr %2, align 8
  store i32 1, ptr %6, align 4
  br label %101

101:                                              ; preds = %97, %79, %76, %47, %30
  call void @llvm.lifetime.end.p0(i64 4, ptr %5) #7
  call void @llvm.lifetime.end.p0(i64 8, ptr %4) #7
  %102 = load ptr, ptr %2, align 8
  ret ptr %102
}